(dp0
S'files'
p1
(S'user_select.py'
p2
tp3
sS'name'
p4
S'Well Files Creator'
p5
sS'author'
p6
S'Mike Mueller'
p7
sS'script'
p8
Vwellfilescreator.py
p9
sS'displaymode'
p10
S'windows'
p11
sS'version'
p12
S'0.9'
p13
sS'data'
p14
S''
p15
sS'icon'
p16
Vmm.ico
p17
s.